; ModuleID = '57/2992.c'
source_filename = "57/2992.c"
target datalayout = "e-m:e-p270:32:32-p271:32:32-p272:64:64-i64:64-f80:128-n8:16:32:64-S128"
target triple = "x86_64-pc-linux-gnu"

@.str = private unnamed_addr constant [3 x i8] c"%d\00", align 1
@.str.1 = private unnamed_addr constant [3 x i8] c"%s\00", align 1
@.str.2 = private unnamed_addr constant [3 x i8] c"%c\00", align 1
@.str.3 = private unnamed_addr constant [2 x i8] c"\0A\00", align 1

; Function Attrs: noinline nounwind uwtable
define dso_local void @main() #0 {
  %1 = alloca i32, align 4
  %2 = alloca i32, align 4
  %3 = alloca i32, align 4
  %4 = alloca i32, align 4
  %5 = alloca [100 x [100 x i8]], align 16
  %6 = call i32 (i8*, ...) @__isoc99_scanf(i8* getelementptr inbounds ([3 x i8], [3 x i8]* @.str, i64 0, i64 0), i32* %1)
  store i32 1, i32* %2, align 4
  br label %7

7:                                                ; preds = %171, %0
  %8 = load i32, i32* %2, align 4
  %9 = load i32, i32* %1, align 4
  %10 = icmp sle i32 %8, %9
  br i1 %10, label %11, label %174

11:                                               ; preds = %7
  %12 = load i32, i32* %2, align 4
  %13 = sext i32 %12 to i64
  %14 = getelementptr inbounds [100 x [100 x i8]], [100 x [100 x i8]]* %5, i64 0, i64 %13
  %15 = getelementptr inbounds [100 x i8], [100 x i8]* %14, i64 0, i64 0
  %16 = call i32 (i8*, ...) @__isoc99_scanf(i8* getelementptr inbounds ([3 x i8], [3 x i8]* @.str.1, i64 0, i64 0), i8* %15)
  %17 = load i32, i32* %2, align 4
  %18 = sext i32 %17 to i64
  %19 = getelementptr inbounds [100 x [100 x i8]], [100 x [100 x i8]]* %5, i64 0, i64 %18
  %20 = getelementptr inbounds [100 x i8], [100 x i8]* %19, i64 0, i64 0
  %21 = call i64 @strlen(i8* %20) #3
  %22 = trunc i64 %21 to i32
  store i32 %22, i32* %4, align 4
  %23 = load i32, i32* %2, align 4
  %24 = sext i32 %23 to i64
  %25 = getelementptr inbounds [100 x [100 x i8]], [100 x [100 x i8]]* %5, i64 0, i64 %24
  %26 = load i32, i32* %4, align 4
  %27 = sub nsw i32 %26, 2
  %28 = sext i32 %27 to i64
  %29 = getelementptr inbounds [100 x i8], [100 x i8]* %25, i64 0, i64 %28
  %30 = load i8, i8* %29, align 1
  %31 = sext i8 %30 to i32
  %32 = icmp eq i32 %31, 101
  br i1 %32, label %33, label %65

33:                                               ; preds = %11
  %34 = load i32, i32* %2, align 4
  %35 = sext i32 %34 to i64
  %36 = getelementptr inbounds [100 x [100 x i8]], [100 x [100 x i8]]* %5, i64 0, i64 %35
  %37 = load i32, i32* %4, align 4
  %38 = sub nsw i32 %37, 1
  %39 = sext i32 %38 to i64
  %40 = getelementptr inbounds [100 x i8], [100 x i8]* %36, i64 0, i64 %39
  %41 = load i8, i8* %40, align 1
  %42 = sext i8 %41 to i32
  %43 = icmp eq i32 %42, 114
  br i1 %43, label %44, label %65

44:                                               ; preds = %33
  store i32 0, i32* %3, align 4
  br label %45

45:                                               ; preds = %60, %44
  %46 = load i32, i32* %3, align 4
  %47 = load i32, i32* %4, align 4
  %48 = sub nsw i32 %47, 3
  %49 = icmp sle i32 %46, %48
  br i1 %49, label %50, label %63

50:                                               ; preds = %45
  %51 = load i32, i32* %2, align 4
  %52 = sext i32 %51 to i64
  %53 = getelementptr inbounds [100 x [100 x i8]], [100 x [100 x i8]]* %5, i64 0, i64 %52
  %54 = load i32, i32* %3, align 4
  %55 = sext i32 %54 to i64
  %56 = getelementptr inbounds [100 x i8], [100 x i8]* %53, i64 0, i64 %55
  %57 = load i8, i8* %56, align 1
  %58 = sext i8 %57 to i32
  %59 = call i32 (i8*, ...) @printf(i8* getelementptr inbounds ([3 x i8], [3 x i8]* @.str.2, i64 0, i64 0), i32 %58)
  br label %60

60:                                               ; preds = %50
  %61 = load i32, i32* %3, align 4
  %62 = add nsw i32 %61, 1
  store i32 %62, i32* %3, align 4
  br label %45

63:                                               ; preds = %45
  %64 = call i32 (i8*, ...) @printf(i8* getelementptr inbounds ([2 x i8], [2 x i8]* @.str.3, i64 0, i64 0))
  br label %170

65:                                               ; preds = %33, %11
  %66 = load i32, i32* %2, align 4
  %67 = sext i32 %66 to i64
  %68 = getelementptr inbounds [100 x [100 x i8]], [100 x [100 x i8]]* %5, i64 0, i64 %67
  %69 = load i32, i32* %4, align 4
  %70 = sub nsw i32 %69, 3
  %71 = sext i32 %70 to i64
  %72 = getelementptr inbounds [100 x i8], [100 x i8]* %68, i64 0, i64 %71
  %73 = load i8, i8* %72, align 1
  %74 = sext i8 %73 to i32
  %75 = icmp eq i32 %74, 105
  br i1 %75, label %76, label %119

76:                                               ; preds = %65
  %77 = load i32, i32* %2, align 4
  %78 = sext i32 %77 to i64
  %79 = getelementptr inbounds [100 x [100 x i8]], [100 x [100 x i8]]* %5, i64 0, i64 %78
  %80 = load i32, i32* %4, align 4
  %81 = sub nsw i32 %80, 2
  %82 = sext i32 %81 to i64
  %83 = getelementptr inbounds [100 x i8], [100 x i8]* %79, i64 0, i64 %82
  %84 = load i8, i8* %83, align 1
  %85 = sext i8 %84 to i32
  %86 = icmp eq i32 %85, 110
  br i1 %86, label %87, label %119

87:                                               ; preds = %76
  %88 = load i32, i32* %2, align 4
  %89 = sext i32 %88 to i64
  %90 = getelementptr inbounds [100 x [100 x i8]], [100 x [100 x i8]]* %5, i64 0, i64 %89
  %91 = load i32, i32* %4, align 4
  %92 = sub nsw i32 %91, 1
  %93 = sext i32 %92 to i64
  %94 = getelementptr inbounds [100 x i8], [100 x i8]* %90, i64 0, i64 %93
  %95 = load i8, i8* %94, align 1
  %96 = sext i8 %95 to i32
  %97 = icmp eq i32 %96, 103
  br i1 %97, label %98, label %119

98:                                               ; preds = %87
  store i32 0, i32* %3, align 4
  br label %99

99:                                               ; preds = %114, %98
  %100 = load i32, i32* %3, align 4
  %101 = load i32, i32* %4, align 4
  %102 = sub nsw i32 %101, 4
  %103 = icmp sle i32 %100, %102
  br i1 %103, label %104, label %117

104:                                              ; preds = %99
  %105 = load i32, i32* %2, align 4
  %106 = sext i32 %105 to i64
  %107 = getelementptr inbounds [100 x [100 x i8]], [100 x [100 x i8]]* %5, i64 0, i64 %106
  %108 = load i32, i32* %3, align 4
  %109 = sext i32 %108 to i64
  %110 = getelementptr inbounds [100 x i8], [100 x i8]* %107, i64 0, i64 %109
  %111 = load i8, i8* %110, align 1
  %112 = sext i8 %111 to i32
  %113 = call i32 (i8*, ...) @printf(i8* getelementptr inbounds ([3 x i8], [3 x i8]* @.str.2, i64 0, i64 0), i32 %112)
  br label %114

114:                                              ; preds = %104
  %115 = load i32, i32* %3, align 4
  %116 = add nsw i32 %115, 1
  store i32 %116, i32* %3, align 4
  br label %99

117:                                              ; preds = %99
  %118 = call i32 (i8*, ...) @printf(i8* getelementptr inbounds ([2 x i8], [2 x i8]* @.str.3, i64 0, i64 0))
  br label %169

119:                                              ; preds = %87, %76, %65
  %120 = load i32, i32* %2, align 4
  %121 = sext i32 %120 to i64
  %122 = getelementptr inbounds [100 x [100 x i8]], [100 x [100 x i8]]* %5, i64 0, i64 %121
  %123 = load i32, i32* %4, align 4
  %124 = sub nsw i32 %123, 2
  %125 = sext i32 %124 to i64
  %126 = getelementptr inbounds [100 x i8], [100 x i8]* %122, i64 0, i64 %125
  %127 = load i8, i8* %126, align 1
  %128 = sext i8 %127 to i32
  %129 = icmp eq i32 %128, 108
  br i1 %129, label %130, label %162

130:                                              ; preds = %119
  %131 = load i32, i32* %2, align 4
  %132 = sext i32 %131 to i64
  %133 = getelementptr inbounds [100 x [100 x i8]], [100 x [100 x i8]]* %5, i64 0, i64 %132
  %134 = load i32, i32* %4, align 4
  %135 = sub nsw i32 %134, 1
  %136 = sext i32 %135 to i64
  %137 = getelementptr inbounds [100 x i8], [100 x i8]* %133, i64 0, i64 %136
  %138 = load i8, i8* %137, align 1
  %139 = sext i8 %138 to i32
  %140 = icmp eq i32 %139, 121
  br i1 %140, label %141, label %162

141:                                              ; preds = %130
  store i32 0, i32* %3, align 4
  br label %142

142:                                              ; preds = %157, %141
  %143 = load i32, i32* %3, align 4
  %144 = load i32, i32* %4, align 4
  %145 = sub nsw i32 %144, 3
  %146 = icmp sle i32 %143, %145
  br i1 %146, label %147, label %160

147:                                              ; preds = %142
  %148 = load i32, i32* %2, align 4
  %149 = sext i32 %148 to i64
  %150 = getelementptr inbounds [100 x [100 x i8]], [100 x [100 x i8]]* %5, i64 0, i64 %149
  %151 = load i32, i32* %3, align 4
  %152 = sext i32 %151 to i64
  %153 = getelementptr inbounds [100 x i8], [100 x i8]* %150, i64 0, i64 %152
  %154 = load i8, i8* %153, align 1
  %155 = sext i8 %154 to i32
  %156 = call i32 (i8*, ...) @printf(i8* getelementptr inbounds ([3 x i8], [3 x i8]* @.str.2, i64 0, i64 0), i32 %155)
  br label %157

157:                                              ; preds = %147
  %158 = load i32, i32* %3, align 4
  %159 = add nsw i32 %158, 1
  store i32 %159, i32* %3, align 4
  br label %142

160:                                              ; preds = %142
  %161 = call i32 (i8*, ...) @printf(i8* getelementptr inbounds ([2 x i8], [2 x i8]* @.str.3, i64 0, i64 0))
  br label %168

162:                                              ; preds = %130, %119
  %163 = load i32, i32* %2, align 4
  %164 = sext i32 %163 to i64
  %165 = getelementptr inbounds [100 x [100 x i8]], [100 x [100 x i8]]* %5, i64 0, i64 %164
  %166 = getelementptr inbounds [100 x i8], [100 x i8]* %165, i64 0, i64 0
  %167 = call i32 (i8*, ...) @printf(i8* getelementptr inbounds ([3 x i8], [3 x i8]* @.str.1, i64 0, i64 0), i8* %166)
  br label %168

168:                                              ; preds = %162, %160
  br label %169

169:                                              ; preds = %168, %117
  br label %170

170:                                              ; preds = %169, %63
  br label %171

171:                                              ; preds = %170
  %172 = load i32, i32* %2, align 4
  %173 = add nsw i32 %172, 1
  store i32 %173, i32* %2, align 4
  br label %7

174:                                              ; preds = %7
  ret void
}

declare dso_local i32 @__isoc99_scanf(i8*, ...) #1

; Function Attrs: nounwind readonly
declare dso_local i64 @strlen(i8*) #2

declare dso_local i32 @printf(i8*, ...) #1


!llvm.module.flags = !{!0}
!llvm.ident = !{!1}

!0 = !{i32 1, !"wchar_size", i32 4}
!1 = !{!"clang version 10.0.0-4ubuntu1 "}
